; Function Attrs: nounwind sspstrong uwtable
define internal noundef ptr @parse_stream_fgets(ptr noundef %0, i32 noundef %1, ptr noundef %2) #0 {
  %4 = ptrtoint ptr %2 to i64
  %.pr.i = load i64, ptr @parse_stream_fgets.rbimpl_id, align 8, !tbaa !7
  %.not4.i = icmp eq i64 %.pr.i, 0
  br i1 %.not4.i, label %.lr.ph.i, label %rbimpl_intern_const.exit

.lr.ph.i:                                         ; preds = %3, %.lr.ph.i
  %5 = tail call i64 @rb_intern2(ptr noundef nonnull @.str.87, i64 noundef 4) #9
  store i64 %5, ptr @parse_stream_fgets.rbimpl_id, align 8, !tbaa !7
  %.not.i = icmp eq i64 %5, 0
  br i1 %.not.i, label %.lr.ph.i, label %rbimpl_intern_const.exit, !llvm.loop !11

rbimpl_intern_const.exit:                         ; preds = %.lr.ph.i, %3
  %.lcssa.i = phi i64 [ %.pr.i, %3 ], [ %5, %.lr.ph.i ]
  %6 = add i32 %1, -1
  %7 = sext i32 %6 to i64
  %8 = shl nsw i64 %7, 1
  %9 = or disjoint i64 %8, 1
  %10 = tail call i64 (i64, i64, i32, ...) @rb_funcall(i64 noundef %4, i64 noundef %.lcssa.i, i32 noundef 1, i64 noundef %9) #9
  %11 = icmp eq i64 %10, 4
  br i1 %11, label %21, label %12

12:                                               ; preds = %rbimpl_intern_const.exit
  %13 = inttoptr i64 %10 to ptr
  %14 = load i64, ptr %13, align 8, !tbaa !47, !noalias !106
  %15 = and i64 %14, 8192
  %.not.i.i = icmp eq i64 %15, 0
  %16 = getelementptr inbounds nuw i8, ptr %13, i64 24
  br i1 %.not.i.i, label %RSTRING_PTR.exit, label %17

17:                                               ; preds = %12
  %.sroa.2.0.copyload.i = load ptr, ptr %16, align 8
  br label %RSTRING_PTR.exit

RSTRING_PTR.exit:                                 ; preds = %12, %17
  %.sroa.2.0.i = phi ptr [ %.sroa.2.0.copyload.i, %17 ], [ %16, %12 ]
  %18 = getelementptr inbounds nuw i8, ptr %13, i64 16
  %19 = load i64, ptr %18, align 8, !tbaa !49
  tail call void @llvm.memcpy.p0.p0.i64(ptr noundef nonnull align 1 %0, ptr noundef nonnull align 1 %.sroa.2.0.i, i64 noundef %19, i1 noundef false) #9
  %20 = getelementptr i8, ptr %0, i64 %19
  store i8 0, ptr %20, align 1, !tbaa !67
  br label %21

21:                                               ; preds = %rbimpl_intern_const.exit, %RSTRING_PTR.exit
  %.0 = phi ptr [ %0, %RSTRING_PTR.exit ], [ null, %rbimpl_intern_const.exit ]
  ret ptr %.0
}